target datalayout = "e-m:e-p270:32:32-p271:32:32-p272:64:64-i64:64-i128:128-f80:128-n8:16:32:64-S128"
target triple = "x86_64-pc-linux-gnu"

%struct.JNINativeInterface_ = type { ptr, ptr, ptr, ptr, ptr, ptr, ptr, ptr, ptr, ptr, ptr, ptr, ptr, ptr, ptr, ptr, ptr, ptr, ptr, ptr, ptr, ptr, ptr, ptr, ptr, ptr, ptr, ptr, ptr, ptr, ptr, ptr, ptr, ptr, ptr, ptr, ptr, ptr, ptr, ptr, ptr, ptr, ptr, ptr, ptr, ptr, ptr, ptr, ptr, ptr, ptr, ptr, ptr, ptr, ptr, ptr, ptr, ptr, ptr, ptr, ptr, ptr, ptr, ptr, ptr, ptr, ptr, ptr, ptr, ptr, ptr, ptr, ptr, ptr, ptr, ptr, ptr, ptr, ptr, ptr, ptr, ptr, ptr, ptr, ptr, ptr, ptr, ptr, ptr, ptr, ptr, ptr, ptr, ptr, ptr, ptr, ptr, ptr, ptr, ptr, ptr, ptr, ptr, ptr, ptr, ptr, ptr, ptr, ptr, ptr, ptr, ptr, ptr, ptr, ptr, ptr, ptr, ptr, ptr, ptr, ptr, ptr, ptr, ptr, ptr, ptr, ptr, ptr, ptr, ptr, ptr, ptr, ptr, ptr, ptr, ptr, ptr, ptr, ptr, ptr, ptr, ptr, ptr, ptr, ptr, ptr, ptr, ptr, ptr, ptr, ptr, ptr, ptr, ptr, ptr, ptr, ptr, ptr, ptr, ptr, ptr, ptr, ptr, ptr, ptr, ptr, ptr, ptr, ptr, ptr, ptr, ptr, ptr, ptr, ptr, ptr, ptr, ptr, ptr, ptr, ptr, ptr, ptr, ptr, ptr, ptr, ptr, ptr, ptr, ptr, ptr, ptr, ptr, ptr, ptr, ptr, ptr, ptr, ptr, ptr, ptr, ptr, ptr, ptr, ptr, ptr, ptr, ptr, ptr, ptr, ptr, ptr, ptr, ptr, ptr, ptr, ptr, ptr, ptr, ptr, ptr, ptr, ptr, ptr, ptr, ptr, ptr, ptr, ptr, ptr, ptr, ptr, ptr, ptr, ptr }
%struct.passwd = type { ptr, ptr, i32, i32, ptr, ptr, ptr }

@.str.45 = private unnamed_addr constant [12 x i8] c"native heap\00", align 1
@.str.46 = private unnamed_addr constant [25 x i8] c"sun/nio/fs/UnixException\00", align 1
@.str.47 = private unnamed_addr constant [5 x i8] c"(I)V\00", align 1

; Function Attrs: nounwind uwtable
define internal void @throwUnixException(ptr noundef %0, i32 noundef %1) #0 {
  %3 = alloca ptr, align 8
  %4 = alloca i32, align 4
  %5 = alloca ptr, align 8
  store ptr %0, ptr %3, align 8
  store i32 %1, ptr %4, align 4
  %6 = load ptr, ptr %3, align 8
  %7 = load i32, ptr %4, align 4
  %8 = call ptr (ptr, ptr, ptr, ...) @JNU_NewObjectByName(ptr noundef %6, ptr noundef @.str.46, ptr noundef @.str.47, i32 noundef %7)
  store ptr %8, ptr %5, align 8
  %9 = load ptr, ptr %5, align 8
  %10 = icmp ne ptr %9, null
  br i1 %10, label %11, label %19

11:                                               ; preds = %2
  %12 = load ptr, ptr %3, align 8
  %13 = load ptr, ptr %12, align 8
  %14 = getelementptr inbounds %struct.JNINativeInterface_, ptr %13, i32 0, i32 13
  %15 = load ptr, ptr %14, align 8
  %16 = load ptr, ptr %3, align 8
  %17 = load ptr, ptr %5, align 8
  %18 = call i32 %15(ptr noundef %16, ptr noundef %17)
  br label %19

19:                                               ; preds = %11, %2
  ret void
}

; Function Attrs: nounwind uwtable
define i32 @Java_sun_nio_fs_UnixNativeDispatcher_getpwnam0(ptr noundef %0, ptr noundef %1, i64 noundef %2) #0 {
  %4 = alloca ptr, align 8
  %5 = alloca ptr, align 8
  %6 = alloca i64, align 8
  %7 = alloca i32, align 4
  %8 = alloca i32, align 4
  %9 = alloca ptr, align 8
  %10 = alloca %struct.passwd, align 8
  %11 = alloca ptr, align 8
  %12 = alloca i32, align 4
  %13 = alloca ptr, align 8
  store ptr %0, ptr %4, align 8
  store ptr %1, ptr %5, align 8
  store i64 %2, ptr %6, align 8
  store i32 -1, ptr %7, align 4
  %14 = call i64 @sysconf(i32 noundef 70) #6
  %15 = trunc i64 %14 to i32
  store i32 %15, ptr %8, align 4
  %16 = load i32, ptr %8, align 4
  %17 = icmp eq i32 %16, -1
  br i1 %17, label %18, label %19

18:                                               ; preds = %3
  store i32 1024, ptr %8, align 4
  br label %19

19:                                               ; preds = %18, %3
  %20 = load i32, ptr %8, align 4
  %21 = sext i32 %20 to i64
  %22 = call noalias ptr @malloc(i64 noundef %21) #9
  store ptr %22, ptr %9, align 8
  %23 = load ptr, ptr %9, align 8
  %24 = icmp eq ptr %23, null
  br i1 %24, label %25, label %27

25:                                               ; preds = %19
  %26 = load ptr, ptr %4, align 8
  call void @JNU_ThrowOutOfMemoryError(ptr noundef %26, ptr noundef @.str.45)
  br label %97

27:                                               ; preds = %19
  store ptr null, ptr %11, align 8
  store i32 0, ptr %12, align 4
  %28 = load i64, ptr %6, align 8
  %29 = inttoptr i64 %28 to ptr
  store ptr %29, ptr %13, align 8
  %30 = call ptr @__errno_location() #7
  store i32 0, ptr %30, align 4
  br label %31

31:                                               ; preds = %27
  br label %32

32:                                               ; preds = %45, %31
  %33 = load ptr, ptr %13, align 8
  %34 = load ptr, ptr %9, align 8
  %35 = load i32, ptr %8, align 4
  %36 = sext i32 %35 to i64
  %37 = call i32 @getpwnam_r(ptr noundef %33, ptr noundef %10, ptr noundef %34, i64 noundef %36, ptr noundef %11)
  store i32 %37, ptr %12, align 4
  br label %38

38:                                               ; preds = %32
  %39 = load i32, ptr %12, align 4
  %40 = icmp eq i32 %39, -1
  br i1 %40, label %41, label %45

41:                                               ; preds = %38
  %42 = call ptr @__errno_location() #7
  %43 = load i32, ptr %42, align 4
  %44 = icmp eq i32 %43, 4
  br label %45

45:                                               ; preds = %41, %38
  %46 = phi i1 [ false, %38 ], [ %44, %41 ]
  br i1 %46, label %32, label %47, !llvm.loop !36

47:                                               ; preds = %45
  br label %48

48:                                               ; preds = %47
  %49 = load i32, ptr %12, align 4
  %50 = icmp ne i32 %49, 0
  br i1 %50, label %66, label %51

51:                                               ; preds = %48
  %52 = load ptr, ptr %11, align 8
  %53 = icmp eq ptr %52, null
  br i1 %53, label %66, label %54

54:                                               ; preds = %51
  %55 = load ptr, ptr %11, align 8
  %56 = getelementptr inbounds %struct.passwd, ptr %55, i32 0, i32 0
  %57 = load ptr, ptr %56, align 8
  %58 = icmp eq ptr %57, null
  br i1 %58, label %66, label %59

59:                                               ; preds = %54
  %60 = load ptr, ptr %11, align 8
  %61 = getelementptr inbounds %struct.passwd, ptr %60, i32 0, i32 0
  %62 = load ptr, ptr %61, align 8
  %63 = load i8, ptr %62, align 1
  %64 = sext i8 %63 to i32
  %65 = icmp eq i32 %64, 0
  br i1 %65, label %66, label %91

66:                                               ; preds = %59, %54, %51, %48
  %67 = call ptr @__errno_location() #7
  %68 = load i32, ptr %67, align 4
  %69 = icmp ne i32 %68, 0
  br i1 %69, label %70, label %90

70:                                               ; preds = %66
  %71 = call ptr @__errno_location() #7
  %72 = load i32, ptr %71, align 4
  %73 = icmp ne i32 %72, 2
  br i1 %73, label %74, label %90

74:                                               ; preds = %70
  %75 = call ptr @__errno_location() #7
  %76 = load i32, ptr %75, align 4
  %77 = icmp ne i32 %76, 3
  br i1 %77, label %78, label %90

78:                                               ; preds = %74
  %79 = call ptr @__errno_location() #7
  %80 = load i32, ptr %79, align 4
  %81 = icmp ne i32 %80, 9
  br i1 %81, label %82, label %90

82:                                               ; preds = %78
  %83 = call ptr @__errno_location() #7
  %84 = load i32, ptr %83, align 4
  %85 = icmp ne i32 %84, 1
  br i1 %85, label %86, label %90

86:                                               ; preds = %82
  %87 = load ptr, ptr %4, align 8
  %88 = call ptr @__errno_location() #7
  %89 = load i32, ptr %88, align 4
  call void @throwUnixException(ptr noundef %87, i32 noundef %89)
  br label %90

90:                                               ; preds = %86, %82, %78, %74, %70, %66
  br label %95

91:                                               ; preds = %59
  %92 = load ptr, ptr %11, align 8
  %93 = getelementptr inbounds %struct.passwd, ptr %92, i32 0, i32 2
  %94 = load i32, ptr %93, align 8
  store i32 %94, ptr %7, align 4
  br label %95

95:                                               ; preds = %91, %90
  %96 = load ptr, ptr %9, align 8
  call void @free(ptr noundef %96) #6
  br label %97

97:                                               ; preds = %95, %25
  %98 = load i32, ptr %7, align 4
  ret i32 %98
}