; Function Attrs: nounwind uwtable
define i32 @Java_sun_nio_fs_UnixNativeDispatcher_getpwnam0(ptr noundef %0, ptr nocapture noundef readnone %1, i64 noundef %2) local_unnamed_addr #0 {
  %4 = alloca %struct.passwd, align 8
  %5 = alloca ptr, align 8
  %6 = tail call i64 @sysconf(i32 noundef 70) #11
  %7 = and i64 %6, 4294967295
  %8 = icmp eq i64 %7, 4294967295
  %9 = shl i64 %6, 32
  %10 = ashr exact i64 %9, 32
  %11 = select i1 %8, i64 1024, i64 %10
  %12 = tail call noalias ptr @malloc(i64 noundef %11) #14
  %13 = icmp eq ptr %12, null
  br i1 %13, label %14, label %15

14:                                               ; preds = %3
  tail call void @JNU_ThrowOutOfMemoryError(ptr noundef %0, ptr noundef nonnull @.str.45) #11
  br label %45

15:                                               ; preds = %3
  store ptr null, ptr %5, align 8
  %16 = inttoptr i64 %2 to ptr
  %17 = tail call ptr @__errno_location() #12
  store i32 0, ptr %17, align 4
  br label %18

18:                                               ; preds = %21, %15
  %19 = call i32 @getpwnam_r(ptr noundef %16, ptr noundef nonnull %4, ptr noundef nonnull %12, i64 noundef %11, ptr noundef nonnull %5) #11
  %20 = icmp eq i32 %19, -1
  br i1 %20, label %21, label %.critedge

21:                                               ; preds = %18
  %22 = load i32, ptr %17, align 4
  %23 = icmp eq i32 %22, 4
  br i1 %23, label %18, label %.critedge.thread, !llvm.loop !52

.critedge:                                        ; preds = %18
  %24 = icmp ne i32 %19, 0
  %25 = load ptr, ptr %5, align 8
  %26 = icmp eq ptr %25, null
  %or.cond = select i1 %24, i1 true, i1 %26
  br i1 %or.cond, label %thread-pre-split, label %27

27:                                               ; preds = %.critedge
  %28 = load ptr, ptr %25, align 8
  %29 = icmp eq ptr %28, null
  br i1 %29, label %thread-pre-split, label %30

30:                                               ; preds = %27
  %31 = load i8, ptr %28, align 1
  %32 = icmp eq i8 %31, 0
  br i1 %32, label %thread-pre-split, label %42

thread-pre-split:                                 ; preds = %.critedge, %27, %30
  %.pr = load i32, ptr %17, align 4
  br label %.critedge.thread

.critedge.thread:                                 ; preds = %21, %thread-pre-split
  %33 = phi i32 [ %.pr, %thread-pre-split ], [ %22, %21 ]
  %34 = icmp ult i32 %33, 10
  br i1 %34, label %switch.hole_check, label %35

35:                                               ; preds = %switch.hole_check, %.critedge.thread
  %36 = call ptr (ptr, ptr, ptr, ...) @JNU_NewObjectByName(ptr noundef %0, ptr noundef nonnull @.str.46, ptr noundef nonnull @.str.47, i32 noundef %33) #11
  %.not.i = icmp eq ptr %36, null
  br i1 %.not.i, label %throwUnixException.exit, label %37

37:                                               ; preds = %35
  %38 = load ptr, ptr %0, align 8
  %39 = getelementptr inbounds i8, ptr %38, i64 104
  %40 = load ptr, ptr %39, align 8
  %41 = call i32 %40(ptr noundef nonnull %0, ptr noundef nonnull %36) #11
  br label %throwUnixException.exit

42:                                               ; preds = %30
  %43 = getelementptr inbounds i8, ptr %25, i64 16
  %44 = load i32, ptr %43, align 8
  br label %throwUnixException.exit

switch.hole_check:                                ; preds = %.critedge.thread
  %switch.maskindex = trunc nuw i32 %33 to i16
  %switch.shifted = lshr i16 527, %switch.maskindex
  %switch.lobit = trunc i16 %switch.shifted to i1
  br i1 %switch.lobit, label %throwUnixException.exit, label %35

throwUnixException.exit:                          ; preds = %switch.hole_check, %37, %35, %42
  %.0 = phi i32 [ %44, %42 ], [ -1, %35 ], [ -1, %37 ], [ -1, %switch.hole_check ]
  call void @free(ptr noundef %12) #11
  br label %45

45:                                               ; preds = %throwUnixException.exit, %14
  %.1 = phi i32 [ -1, %14 ], [ %.0, %throwUnixException.exit ]
  ret i32 %.1
}